; Function Attrs: mustprogress uwtable
define dso_local noundef i32 @_ZN4i18n12phonenumbers22GlobalReplaceSubstringERKNSt7__cxx1112basic_stringIcSt11char_traitsIcESaIcEEES8_PS6_(ptr noundef nonnull readonly align 8 captures(none) dereferenceable(32) %0, ptr noundef nonnull readonly align 8 captures(none) dereferenceable(32) %1, ptr noundef %2) local_unnamed_addr #0 personality ptr @__gxx_personality_v0 {
  %4 = alloca [1 x %"struct.std::pair"], align 8
  call void @llvm.lifetime.start.p0(i64 32, ptr nonnull %4) #19
  %5 = load ptr, ptr %0, align 8, !tbaa !14
  %6 = getelementptr inbounds nuw i8, ptr %0, i64 8
  %7 = load i64, ptr %6, align 8, !tbaa !10
  store ptr %5, ptr %4, align 8, !tbaa !15
  %8 = icmp sgt i64 %7, -1
  br i1 %8, label %_ZN4absl7debian211string_viewC2ISaIcEEERKNSt7__cxx1112basic_stringIcSt11char_traitsIcET_EE.exit.i, label %9, !prof !17

9:                                                ; preds = %3
  tail call void @llvm.trap()
  unreachable

_ZN4absl7debian211string_viewC2ISaIcEEERKNSt7__cxx1112basic_stringIcSt11char_traitsIcET_EE.exit.i: ; preds = %3
  %10 = getelementptr inbounds nuw i8, ptr %4, i64 8
  store i64 %7, ptr %10, align 8, !tbaa !18
  %11 = getelementptr inbounds nuw i8, ptr %4, i64 16
  %12 = load ptr, ptr %1, align 8, !tbaa !14
  %13 = getelementptr inbounds nuw i8, ptr %1, i64 8
  %14 = load i64, ptr %13, align 8, !tbaa !10
  store ptr %12, ptr %11, align 8, !tbaa !15
  %15 = icmp sgt i64 %14, -1
  br i1 %15, label %_ZNSt4pairIN4absl7debian211string_viewES2_EC2IRKNSt7__cxx1112basic_stringIcSt11char_traitsIcESaIcEEESC_TnNSt9enable_ifIXaaclsr5_PCCPE22_MoveConstructiblePairIT_T0_EEclsr5_PCCPE30_ImplicitlyMoveConvertiblePairISE_SF_EEEbE4typeELb1EEEOSE_OSF_.exit, label %16, !prof !17

16:                                               ; preds = %_ZN4absl7debian211string_viewC2ISaIcEEERKNSt7__cxx1112basic_stringIcSt11char_traitsIcET_EE.exit.i
  tail call void @llvm.trap()
  unreachable

_ZNSt4pairIN4absl7debian211string_viewES2_EC2IRKNSt7__cxx1112basic_stringIcSt11char_traitsIcESaIcEEESC_TnNSt9enable_ifIXaaclsr5_PCCPE22_MoveConstructiblePairIT_T0_EEclsr5_PCCPE30_ImplicitlyMoveConvertiblePairISE_SF_EEEbE4typeELb1EEEOSE_OSF_.exit: ; preds = %_ZN4absl7debian211string_viewC2ISaIcEEERKNSt7__cxx1112basic_stringIcSt11char_traitsIcET_EE.exit.i
  %17 = getelementptr inbounds nuw i8, ptr %4, i64 24
  store i64 %14, ptr %17, align 8, !tbaa !18
  %18 = call noundef i32 @_ZN4absl7debian213StrReplaceAllESt16initializer_listISt4pairINS0_11string_viewES3_EEPNSt7__cxx1112basic_stringIcSt11char_traitsIcESaIcEEE(ptr nonnull %4, i64 1, ptr noundef %2)
  call void @llvm.lifetime.end.p0(i64 32, ptr nonnull %4) #19
  ret i32 %18
}